; Function Attrs: mustprogress uwtable
define dso_local noundef zeroext i1 @_ZNK3net14QuicSpdyStream14HasBytesToReadEv(ptr noundef nonnull align 8 dereferenceable(664) %this) local_unnamed_addr #0 align 2 {
entry:
  %decompressed_headers_ = getelementptr inbounds i8, ptr %this, i64 408
  %call = tail call noundef zeroext i1 @_ZNKSt7__cxx1112basic_stringIcSt11char_traitsIcESaIcEE5emptyEv(ptr noundef nonnull align 8 dereferenceable(32) %decompressed_headers_) #12
  %sequencer_.i = getelementptr inbounds i8, ptr %this, i64 40
  %call3 = tail call noundef zeroext i1 @_ZNK3net19QuicStreamSequencer14HasBytesToReadEv(ptr noundef nonnull align 8 dereferenceable(169) %sequencer_.i)
  %decompressed_trailers_ = getelementptr inbounds i8, ptr %this, i64 544
  %call5 = tail call noundef zeroext i1 @_ZNKSt7__cxx1112basic_stringIcSt11char_traitsIcESaIcEE5emptyEv(ptr noundef nonnull align 8 dereferenceable(32) %decompressed_trailers_) #12
  br i1 %call, label %lor.lhs.false, label %lor.end

lor.lhs.false:                                    ; preds = %entry
  %lnot6 = xor i1 %call5, true
  %spec.select = or i1 %call3, %lnot6
  br label %lor.end

lor.end:                                          ; preds = %lor.lhs.false, %entry
  %0 = phi i1 [ true, %entry ], [ %spec.select, %lor.lhs.false ]
  ret i1 %0
}